; Function Attrs: mustprogress nounwind uwtable
define dso_local void @_ZN3net22QuicClientPromisedInfoD2Ev(ptr noundef nonnull align 8 dereferenceable(96) %this) unnamed_addr #0 align 2 personality ptr @__gxx_personality_v0 {
entry:
  store ptr getelementptr inbounds ({ [6 x ptr] }, ptr @_ZTVN3net22QuicClientPromisedInfoE, i64 0, i32 0, i64 2), ptr %this, align 8
  %cleanup_alarm_ = getelementptr inbounds i8, ptr %this, i64 88
  %0 = load ptr, ptr %cleanup_alarm_, align 8
  %cmp.not.i = icmp eq ptr %0, null
  br i1 %cmp.not.i, label %_ZNSt10unique_ptrIN3net9QuicAlarmESt14default_deleteIS1_EED2Ev.exit, label %_ZNKSt14default_deleteIN3net9QuicAlarmEEclEPS1_.exit.i

_ZNKSt14default_deleteIN3net9QuicAlarmEEclEPS1_.exit.i: ; preds = %entry
  %vtable.i.i = load ptr, ptr %0, align 8
  %vfn.i.i = getelementptr inbounds i8, ptr %vtable.i.i, i64 8
  %1 = load ptr, ptr %vfn.i.i, align 8
  tail call void %1(ptr noundef nonnull align 8 dereferenceable(24) %0) #8
  br label %_ZNSt10unique_ptrIN3net9QuicAlarmESt14default_deleteIS1_EED2Ev.exit

_ZNSt10unique_ptrIN3net9QuicAlarmESt14default_deleteIS1_EED2Ev.exit: ; preds = %entry, %_ZNKSt14default_deleteIN3net9QuicAlarmEEclEPS1_.exit.i
  store ptr null, ptr %cleanup_alarm_, align 8
  %client_request_headers_ = getelementptr inbounds i8, ptr %this, i64 72
  %2 = load ptr, ptr %client_request_headers_, align 8
  %cmp.not.i1 = icmp eq ptr %2, null
  br i1 %cmp.not.i1, label %_ZNSt10unique_ptrIN3net15SpdyHeaderBlockESt14default_deleteIS1_EED2Ev.exit, label %_ZNKSt14default_deleteIN3net15SpdyHeaderBlockEEclEPS1_.exit.i

_ZNKSt14default_deleteIN3net15SpdyHeaderBlockEEclEPS1_.exit.i: ; preds = %_ZNSt10unique_ptrIN3net9QuicAlarmESt14default_deleteIS1_EED2Ev.exit
  tail call void @_ZN3net15SpdyHeaderBlockD1Ev(ptr noundef nonnull align 8 dereferenceable(88) %2) #8
  tail call void @_ZdlPv(ptr noundef nonnull %2) #9
  br label %_ZNSt10unique_ptrIN3net15SpdyHeaderBlockESt14default_deleteIS1_EED2Ev.exit

_ZNSt10unique_ptrIN3net15SpdyHeaderBlockESt14default_deleteIS1_EED2Ev.exit: ; preds = %_ZNSt10unique_ptrIN3net9QuicAlarmESt14default_deleteIS1_EED2Ev.exit, %_ZNKSt14default_deleteIN3net15SpdyHeaderBlockEEclEPS1_.exit.i
  store ptr null, ptr %client_request_headers_, align 8
  %response_headers_ = getelementptr inbounds i8, ptr %this, i64 64
  %3 = load ptr, ptr %response_headers_, align 8
  %cmp.not.i2 = icmp eq ptr %3, null
  br i1 %cmp.not.i2, label %_ZNSt10unique_ptrIN3net15SpdyHeaderBlockESt14default_deleteIS1_EED2Ev.exit4, label %_ZNKSt14default_deleteIN3net15SpdyHeaderBlockEEclEPS1_.exit.i3

_ZNKSt14default_deleteIN3net15SpdyHeaderBlockEEclEPS1_.exit.i3: ; preds = %_ZNSt10unique_ptrIN3net15SpdyHeaderBlockESt14default_deleteIS1_EED2Ev.exit
  tail call void @_ZN3net15SpdyHeaderBlockD1Ev(ptr noundef nonnull align 8 dereferenceable(88) %3) #8
  tail call void @_ZdlPv(ptr noundef nonnull %3) #9
  br label %_ZNSt10unique_ptrIN3net15SpdyHeaderBlockESt14default_deleteIS1_EED2Ev.exit4

_ZNSt10unique_ptrIN3net15SpdyHeaderBlockESt14default_deleteIS1_EED2Ev.exit4: ; preds = %_ZNSt10unique_ptrIN3net15SpdyHeaderBlockESt14default_deleteIS1_EED2Ev.exit, %_ZNKSt14default_deleteIN3net15SpdyHeaderBlockEEclEPS1_.exit.i3
  store ptr null, ptr %response_headers_, align 8
  %request_headers_ = getelementptr inbounds i8, ptr %this, i64 56
  %4 = load ptr, ptr %request_headers_, align 8
  %cmp.not.i5 = icmp eq ptr %4, null
  br i1 %cmp.not.i5, label %_ZNSt10unique_ptrIN3net15SpdyHeaderBlockESt14default_deleteIS1_EED2Ev.exit7, label %_ZNKSt14default_deleteIN3net15SpdyHeaderBlockEEclEPS1_.exit.i6

_ZNKSt14default_deleteIN3net15SpdyHeaderBlockEEclEPS1_.exit.i6: ; preds = %_ZNSt10unique_ptrIN3net15SpdyHeaderBlockESt14default_deleteIS1_EED2Ev.exit4
  tail call void @_ZN3net15SpdyHeaderBlockD1Ev(ptr noundef nonnull align 8 dereferenceable(88) %4) #8
  tail call void @_ZdlPv(ptr noundef nonnull %4) #9
  br label %_ZNSt10unique_ptrIN3net15SpdyHeaderBlockESt14default_deleteIS1_EED2Ev.exit7

_ZNSt10unique_ptrIN3net15SpdyHeaderBlockESt14default_deleteIS1_EED2Ev.exit7: ; preds = %_ZNSt10unique_ptrIN3net15SpdyHeaderBlockESt14default_deleteIS1_EED2Ev.exit4, %_ZNKSt14default_deleteIN3net15SpdyHeaderBlockEEclEPS1_.exit.i6
  store ptr null, ptr %request_headers_, align 8
  %url_ = getelementptr inbounds i8, ptr %this, i64 24
  tail call void @_ZNSt7__cxx1112basic_stringIcSt11char_traitsIcESaIcEED1Ev(ptr noundef nonnull align 8 dereferenceable(32) %url_) #8
  tail call void @_ZN3net26QuicClientPushPromiseIndex9TryHandleD2Ev(ptr noundef nonnull align 8 dereferenceable(8) %this) #8
  ret void
}